

Microchip MPLAB XC8 Assembler V2.36 build 20220127204148 
                                                                                               Sun Apr 10 15:41:27 2022

Microchip MPLAB XC8 C Compiler v2.36 (Free license) build 20220127204148 Og1 
     1                           	processor	16F877A
     2                           	pagewidth 120
     3                           	opt	flic
     4                           	psect	idataCOMMON,global,class=CODE,delta=2,noexec
     5                           	psect	idataBANK0,global,class=CODE,delta=2,noexec
     6                           	psect	strings,global,class=STRING,delta=2,noexec
     7                           	psect	cinit,global,class=CODE,merge=1,delta=2
     8                           	psect	dataCOMMON,global,class=COMMON,space=1,delta=1,noexec
     9                           	psect	dataBANK0,global,class=BANK0,space=1,delta=1,noexec
    10                           	psect	inittext,global,class=CODE,delta=2
    11                           	psect	cstackCOMMON,global,class=COMMON,space=1,delta=1,noexec
    12                           	psect	maintext,global,class=CODE,split=1,delta=2
    13                           	psect	text1,local,class=CODE,merge=1,delta=2
    14                           	psect	text2,local,class=CODE,merge=1,delta=2
    15                           	psect	text3,local,class=CODE,merge=1,delta=2
    16                           	psect	text4,local,class=CODE,merge=1,delta=2
    17                           	psect	idloc,global,abs,ovrld,class=IDLOC,space=5,delta=2,noexec
    18                           	psect	config,global,abs,ovrld,class=CONFIG,space=4,delta=2,noexec
    19                           	dabs	1,0x7E,2
    20  0000                     
    21                           ; Version 2.40
    22                           ; Generated 17/11/2021 GMT
    23                           ; 
    24                           ; Copyright © 2021, Microchip Technology Inc. and its subsidiaries ("Microchip")
    25                           ; All rights reserved.
    26                           ; 
    27                           ; This software is developed by Microchip Technology Inc. and its subsidiaries ("Microch
      +                          ip").
    28                           ; 
    29                           ; Redistribution and use in source and binary forms, with or without modification, are
    30                           ; permitted provided that the following conditions are met:
    31                           ; 
    32                           ;     1. Redistributions of source code must retain the above copyright notice, this lis
      +                          t of
    33                           ;        conditions and the following disclaimer.
    34                           ; 
    35                           ;     2. Redistributions in binary form must reproduce the above copyright notice, this 
      +                          list
    36                           ;        of conditions and the following disclaimer in the documentation and/or other
    37                           ;        materials provided with the distribution. Publication is not required when
    38                           ;        this file is used in an embedded application.
    39                           ; 
    40                           ;     3. Microchip's name may not be used to endorse or promote products derived from th
      +                          is
    41                           ;        software without specific prior written permission.
    42                           ; 
    43                           ; THIS SOFTWARE IS PROVIDED BY MICROCHIP "AS IS" AND ANY EXPRESS OR IMPLIED WARRANTIES,
    44                           ; INCLUDING, BUT NOT LIMITED TO, THE IMPLIED WARRANTIES OF MERCHANTABILITY AND FITNESS F
      +                          OR
    45                           ; PURPOSE ARE DISCLAIMED.  IN NO EVENT SHALL MICROCHIP BE LIABLE FOR ANY DIRECT, INDIREC
      +                          T,
    46                           ; INCIDENTAL, SPECIAL, EXEMPLARY, OR CONSEQUENTIAL DAMAGES (INCLUDING BUT NOT LIMITED TO
    47                           ; PROCUREMENT OF SUBSTITUTE GOODS OR SERVICES; LOSS OF USE, DATA OR PROFITS; OR BUSINESS
    48                           ; INTERRUPTION) HOWSOEVER CAUSED AND ON ANY THEORY OF LIABILITY, WHETHER IN CONTRACT, ST
      +                          RICT
    49                           ; LIABILITY, OR TORT (INCLUDING NEGLIGENCE OR OTHERWISE) ARISING IN ANY WAY OUT OF THE U
      +                          SE OF
    50                           ; THIS SOFTWARE, EVEN IF ADVISED OF THE POSSIBILITY OF SUCH DAMAGE.
    51                           ; 
    52                           ; 
    53                           ; Code-generator required, PIC16F877A Definitions
    54                           ; 
    55                           ; SFR Addresses
    56  0000                     	;# 
    57  0001                     	;# 
    58  0002                     	;# 
    59  0003                     	;# 
    60  0004                     	;# 
    61  0005                     	;# 
    62  0006                     	;# 
    63  0007                     	;# 
    64  0008                     	;# 
    65  0009                     	;# 
    66  000A                     	;# 
    67  000B                     	;# 
    68  000C                     	;# 
    69  000D                     	;# 
    70  000E                     	;# 
    71  000E                     	;# 
    72  000F                     	;# 
    73  0010                     	;# 
    74  0011                     	;# 
    75  0012                     	;# 
    76  0013                     	;# 
    77  0014                     	;# 
    78  0015                     	;# 
    79  0015                     	;# 
    80  0016                     	;# 
    81  0017                     	;# 
    82  0018                     	;# 
    83  0019                     	;# 
    84  001A                     	;# 
    85  001B                     	;# 
    86  001B                     	;# 
    87  001C                     	;# 
    88  001D                     	;# 
    89  001E                     	;# 
    90  001F                     	;# 
    91  0081                     	;# 
    92  0085                     	;# 
    93  0086                     	;# 
    94  0087                     	;# 
    95  0088                     	;# 
    96  0089                     	;# 
    97  008C                     	;# 
    98  008D                     	;# 
    99  008E                     	;# 
   100  0091                     	;# 
   101  0092                     	;# 
   102  0093                     	;# 
   103  0094                     	;# 
   104  0098                     	;# 
   105  0099                     	;# 
   106  009C                     	;# 
   107  009D                     	;# 
   108  009E                     	;# 
   109  009F                     	;# 
   110  010C                     	;# 
   111  010D                     	;# 
   112  010E                     	;# 
   113  010F                     	;# 
   114  018C                     	;# 
   115  018D                     	;# 
   116  0000                     	;# 
   117  0001                     	;# 
   118  0002                     	;# 
   119  0003                     	;# 
   120  0004                     	;# 
   121  0005                     	;# 
   122  0006                     	;# 
   123  0007                     	;# 
   124  0008                     	;# 
   125  0009                     	;# 
   126  000A                     	;# 
   127  000B                     	;# 
   128  000C                     	;# 
   129  000D                     	;# 
   130  000E                     	;# 
   131  000E                     	;# 
   132  000F                     	;# 
   133  0010                     	;# 
   134  0011                     	;# 
   135  0012                     	;# 
   136  0013                     	;# 
   137  0014                     	;# 
   138  0015                     	;# 
   139  0015                     	;# 
   140  0016                     	;# 
   141  0017                     	;# 
   142  0018                     	;# 
   143  0019                     	;# 
   144  001A                     	;# 
   145  001B                     	;# 
   146  001B                     	;# 
   147  001C                     	;# 
   148  001D                     	;# 
   149  001E                     	;# 
   150  001F                     	;# 
   151  0081                     	;# 
   152  0085                     	;# 
   153  0086                     	;# 
   154  0087                     	;# 
   155  0088                     	;# 
   156  0089                     	;# 
   157  008C                     	;# 
   158  008D                     	;# 
   159  008E                     	;# 
   160  0091                     	;# 
   161  0092                     	;# 
   162  0093                     	;# 
   163  0094                     	;# 
   164  0098                     	;# 
   165  0099                     	;# 
   166  009C                     	;# 
   167  009D                     	;# 
   168  009E                     	;# 
   169  009F                     	;# 
   170  010C                     	;# 
   171  010D                     	;# 
   172  010E                     	;# 
   173  010F                     	;# 
   174  018C                     	;# 
   175  018D                     	;# 
   176  0000                     	;# 
   177  0001                     	;# 
   178  0002                     	;# 
   179  0003                     	;# 
   180  0004                     	;# 
   181  0005                     	;# 
   182  0006                     	;# 
   183  0007                     	;# 
   184  0008                     	;# 
   185  0009                     	;# 
   186  000A                     	;# 
   187  000B                     	;# 
   188  000C                     	;# 
   189  000D                     	;# 
   190  000E                     	;# 
   191  000E                     	;# 
   192  000F                     	;# 
   193  0010                     	;# 
   194  0011                     	;# 
   195  0012                     	;# 
   196  0013                     	;# 
   197  0014                     	;# 
   198  0015                     	;# 
   199  0015                     	;# 
   200  0016                     	;# 
   201  0017                     	;# 
   202  0018                     	;# 
   203  0019                     	;# 
   204  001A                     	;# 
   205  001B                     	;# 
   206  001B                     	;# 
   207  001C                     	;# 
   208  001D                     	;# 
   209  001E                     	;# 
   210  001F                     	;# 
   211  0081                     	;# 
   212  0085                     	;# 
   213  0086                     	;# 
   214  0087                     	;# 
   215  0088                     	;# 
   216  0089                     	;# 
   217  008C                     	;# 
   218  008D                     	;# 
   219  008E                     	;# 
   220  0091                     	;# 
   221  0092                     	;# 
   222  0093                     	;# 
   223  0094                     	;# 
   224  0098                     	;# 
   225  0099                     	;# 
   226  009C                     	;# 
   227  009D                     	;# 
   228  009E                     	;# 
   229  009F                     	;# 
   230  010C                     	;# 
   231  010D                     	;# 
   232  010E                     	;# 
   233  010F                     	;# 
   234  018C                     	;# 
   235  018D                     	;# 
   236                           
   237                           	psect	idataCOMMON
   238  061E                     __pidataCOMMON:
   239                           
   240                           ;initializer for _my_TRISCbits
   241  061E  3487               	retlw	135
   242  061F  3400               	retlw	0
   243                           
   244                           ;initializer for _my_PORTBbits
   245  0620  3406               	retlw	6
   246  0621  3400               	retlw	0
   247                           
   248                           ;initializer for _my_TRISBbits
   249  0622  3486               	retlw	134
   250  0623  3400               	retlw	0
   251                           
   252                           ;initializer for _my_PORTAbits
   253  0624  3405               	retlw	5
   254  0625  3400               	retlw	0
   255                           
   256                           ;initializer for _my_TRISAbits
   257  0626  3485               	retlw	133
   258  0627  3400               	retlw	0
   259                           
   260                           	psect	idataBANK0
   261  0614                     __pidataBANK0:
   262                           
   263                           ;initializer for _my_PORTEbits
   264  0614  3409               	retlw	9
   265  0615  3400               	retlw	0
   266                           
   267                           ;initializer for _my_TRISEbits
   268  0616  3489               	retlw	137
   269  0617  3400               	retlw	0
   270                           
   271                           ;initializer for _my_PORTDbits
   272  0618  3408               	retlw	8
   273  0619  3400               	retlw	0
   274                           
   275                           ;initializer for _my_TRISDbits
   276  061A  3488               	retlw	136
   277  061B  3400               	retlw	0
   278                           
   279                           ;initializer for _my_PORTCbits
   280  061C  3407               	retlw	7
   281  061D  3400               	retlw	0
   282                           
   283                           	psect	strings
   284  0003                     __pstrings:
   285  0003                     stringtab:
   286  0003                     __stringtab:
   287  0003                     stringcode:	
   288                           ;	String table - string pointers are 1 byte each
   289                           
   290  0003                     stringdir:
   291  0003  3000               	movlw	high stringdir
   292  0004  008A               	movwf	10
   293  0005  0804               	movf	4,w
   294  0006  0A84               	incf	4,f
   295  0007  0782               	addwf	2,f
   296  0008                     __stringbase:
   297  0008  3400               	retlw	0
   298  0009                     __end_of__stringtab:
   299  0009                     __my_PORTE:
   300  0009  3409               	retlw	9
   301  000A  3400               	retlw	0
   302  000B                     __end_of__my_PORTE:
   303  000B                     __my_TRISE:
   304  000B  3489               	retlw	137
   305  000C  3400               	retlw	0
   306  000D                     __end_of__my_TRISE:
   307  000D                     __my_PORTD:
   308  000D  3408               	retlw	8
   309  000E  3400               	retlw	0
   310  000F                     __end_of__my_PORTD:
   311  000F                     __my_TRISD:
   312  000F  3488               	retlw	136
   313  0010  3400               	retlw	0
   314  0011                     __end_of__my_TRISD:
   315  0011                     __my_PORTC:
   316  0011  3407               	retlw	7
   317  0012  3400               	retlw	0
   318  0013                     __end_of__my_PORTC:
   319  0013                     __my_TRISC:
   320  0013  3487               	retlw	135
   321  0014  3400               	retlw	0
   322  0015                     __end_of__my_TRISC:
   323  0015                     __my_PORTB:
   324  0015  3406               	retlw	6
   325  0016  3400               	retlw	0
   326  0017                     __end_of__my_PORTB:
   327  0017                     __my_TRISB:
   328  0017  3486               	retlw	134
   329  0018  3400               	retlw	0
   330  0019                     __end_of__my_TRISB:
   331  0019                     __my_PORTA:
   332  0019  3405               	retlw	5
   333  001A  3400               	retlw	0
   334  001B                     __end_of__my_PORTA:
   335  001B                     __my_TRISA:
   336  001B  3485               	retlw	133
   337  001C  3400               	retlw	0
   338  001D                     __end_of__my_TRISA:
   339                           
   340                           	psect	cinit
   341  07B2                     start_initialization:	
   342                           ; #config settings
   343                           
   344  07B2                     __initialization:
   345                           
   346                           ; Initialize objects allocated to BANK0
   347  07B2  1383               	bcf	3,7	;select IRP bank0
   348  07B3  302A               	movlw	low (__pdataBANK0+10)
   349  07B4  00FD               	movwf	btemp+-1
   350  07B5  3006               	movlw	high __pidataBANK0
   351  07B6  00FE               	movwf	btemp
   352  07B7  3014               	movlw	low __pidataBANK0
   353  07B8  00FF               	movwf	btemp+1
   354  07B9  3020               	movlw	low __pdataBANK0
   355  07BA  0084               	movwf	4
   356  07BB  120A  118A  263B  120A  118A  	fcall	init_ram0
   357                           
   358                           ; Initialize objects allocated to COMMON
   359  07C0  120A  118A  261E  120A  118A  	fcall	__pidataCOMMON	;fetch initializer
   360  07C5  00F0               	movwf	__pdataCOMMON& (0+127)
   361  07C6  120A  118A  261F  120A  118A  	fcall	__pidataCOMMON+1	;fetch initializer
   362  07CB  00F1               	movwf	(__pdataCOMMON+1)& (0+127)
   363  07CC  120A  118A  2620  120A  118A  	fcall	__pidataCOMMON+2	;fetch initializer
   364  07D1  00F2               	movwf	(__pdataCOMMON+2)& (0+127)
   365  07D2  120A  118A  2621  120A  118A  	fcall	__pidataCOMMON+3	;fetch initializer
   366  07D7  00F3               	movwf	(__pdataCOMMON+3)& (0+127)
   367  07D8  120A  118A  2622  120A  118A  	fcall	__pidataCOMMON+4	;fetch initializer
   368  07DD  00F4               	movwf	(__pdataCOMMON+4)& (0+127)
   369  07DE  120A  118A  2623  120A  118A  	fcall	__pidataCOMMON+5	;fetch initializer
   370  07E3  00F5               	movwf	(__pdataCOMMON+5)& (0+127)
   371  07E4  120A  118A  2624  120A  118A  	fcall	__pidataCOMMON+6	;fetch initializer
   372  07E9  00F6               	movwf	(__pdataCOMMON+6)& (0+127)
   373  07EA  120A  118A  2625  120A  118A  	fcall	__pidataCOMMON+7	;fetch initializer
   374  07EF  00F7               	movwf	(__pdataCOMMON+7)& (0+127)
   375  07F0  120A  118A  2626  120A  118A  	fcall	__pidataCOMMON+8	;fetch initializer
   376  07F5  00F8               	movwf	(__pdataCOMMON+8)& (0+127)
   377  07F6  120A  118A  2627  120A  118A  	fcall	__pidataCOMMON+9	;fetch initializer
   378  07FB  00F9               	movwf	(__pdataCOMMON+9)& (0+127)
   379  07FC                     end_of_initialization:	
   380                           ;End of C runtime variable initialization code
   381                           
   382  07FC                     __end_of__initialization:
   383  07FC  0183               	clrf	3
   384  07FD  120A  118A  2E70   	ljmp	_main	;jump to C main() function
   385                           
   386                           	psect	dataCOMMON
   387  0070                     __pdataCOMMON:
   388  0070                     _my_TRISCbits:
   389  0070                     	ds	2
   390  0072                     _my_PORTBbits:
   391  0072                     	ds	2
   392  0074                     _my_TRISBbits:
   393  0074                     	ds	2
   394  0076                     _my_PORTAbits:
   395  0076                     	ds	2
   396  0078                     _my_TRISAbits:
   397  0078                     	ds	2
   398                           
   399                           	psect	dataBANK0
   400  0020                     __pdataBANK0:
   401  0020                     _my_PORTEbits:
   402  0020                     	ds	2
   403  0022                     _my_TRISEbits:
   404  0022                     	ds	2
   405  0024                     _my_PORTDbits:
   406  0024                     	ds	2
   407  0026                     _my_TRISDbits:
   408  0026                     	ds	2
   409  0028                     _my_PORTCbits:
   410  0028                     	ds	2
   411                           
   412                           	psect	inittext
   413  0637                     init_fetch0:	
   414                           ;	Called with low address in FSR and high address in W
   415                           
   416  0637  087E               	movf	btemp,w
   417  0638  008A               	movwf	10
   418  0639  087F               	movf	btemp+1,w
   419  063A  0082               	movwf	2
   420  063B                     init_ram0:	
   421                           ;Called with:
   422                           ;	high address of idata address in btemp 
   423                           ;	low address of idata address in btemp+1 
   424                           ;	low address of data in FSR
   425                           ;	high address + 1 of data in btemp-1
   426                           
   427  063B  120A  118A  2637  120A  118A  	fcall	init_fetch0
   428  0640  0080               	movwf	0
   429  0641  0A84               	incf	4,f
   430  0642  0804               	movf	4,w
   431  0643  067D               	xorwf	btemp+-1,w
   432  0644  1903               	btfsc	3,2
   433  0645  3400               	retlw	0
   434  0646  0AFF               	incf	btemp+1,f
   435  0647  1903               	btfsc	3,2
   436  0648  0AFE               	incf	btemp,f
   437  0649  2E3B               	goto	init_ram0
   438                           
   439                           	psect	cstackCOMMON
   440  007A                     __pcstackCOMMON:
   441  007A                     ?_init_config_settings:
   442  007A                     ??_init_config_settings:	
   443                           ; 1 bytes @ 0x0
   444                           
   445  007A                     ?_set_all_ports:	
   446                           ; 1 bytes @ 0x0
   447                           
   448  007A                     ??_set_all_ports:	
   449                           ; 1 bytes @ 0x0
   450                           
   451  007A                     ?_flip_flop_func:	
   452                           ; 1 bytes @ 0x0
   453                           
   454  007A                     ??_flip_flop_func:	
   455                           ; 1 bytes @ 0x0
   456                           
   457  007A                     ?_walking_lights_func:	
   458                           ; 1 bytes @ 0x0
   459                           
   460  007A                     ??_walking_lights_func:	
   461                           ; 1 bytes @ 0x0
   462                           
   463  007A                     ?_main:	
   464                           ; 1 bytes @ 0x0
   465                           
   466                           
   467                           ; 1 bytes @ 0x0
   468  007A                     	ds	2
   469  007C                     ??_main:
   470  007C                     main@c:	
   471                           ; 1 bytes @ 0x2
   472                           
   473                           
   474                           ; 2 bytes @ 0x2
   475  007C                     	ds	2
   476                           
   477                           	psect	maintext
   478  0670                     __pmaintext:	
   479 ;;
   480 ;;Main: autosize = 0, tempsize = 0, incstack = 0, save=0
   481 ;;
   482 ;; *************** function _main *****************
   483 ;; Defined at:
   484 ;;		line 54 in file "main.c"
   485 ;; Parameters:    Size  Location     Type
   486 ;;		None
   487 ;; Auto vars:     Size  Location     Type
   488 ;;  c               2    2[COMMON] volatile int 
   489 ;; Return value:  Size  Location     Type
   490 ;;                  1    wreg      void 
   491 ;; Registers used:
   492 ;;		wreg, status,2, status,0, btemp+1, pclath, cstack
   493 ;; Tracked objects:
   494 ;;		On entry : B00/0
   495 ;;		On exit  : 0/0
   496 ;;		Unchanged: 0/0
   497 ;; Data sizes:     COMMON   BANK0   BANK1   BANK3   BANK2
   498 ;;      Params:         0       0       0       0       0
   499 ;;      Locals:         2       0       0       0       0
   500 ;;      Temps:          0       0       0       0       0
   501 ;;      Totals:         2       0       0       0       0
   502 ;;Total ram usage:        2 bytes
   503 ;; Hardware stack levels required when called: 1
   504 ;; This function calls:
   505 ;;		_flip_flop_func
   506 ;;		_init_config_settings
   507 ;;		_set_all_ports
   508 ;;		_walking_lights_func
   509 ;; This function is called by:
   510 ;;		Startup code after reset
   511 ;; This function uses a non-reentrant model
   512 ;;
   513                           
   514  0670                     _main:	
   515                           ;psect for function _main
   516                           
   517  0670                     l982:	
   518                           ;incstack = 0
   519                           ; Regs used in _main: [wreg+status,2+status,0+btemp+1+pclath+cstack]
   520                           
   521                           
   522                           ;main.c: 55:     init_config_settings();
   523  0670  120A  118A  2613  120A  118A  	fcall	_init_config_settings
   524                           
   525                           ;main.c: 56:     set_all_ports();
   526  0675  120A  118A  2628  120A  118A  	fcall	_set_all_ports
   527  067A                     l984:
   528                           
   529                           ;main.c: 57:     volatile int c = 0;
   530  067A  01FC               	clrf	main@c	;volatile
   531  067B  01FD               	clrf	main@c+1	;volatile
   532  067C                     l986:
   533                           
   534                           ;main.c: 61:     *_my_TRISD = 0X00;
   535  067C  1683               	bsf	3,5	;RP0=1, select bank1
   536  067D  1303               	bcf	3,6	;RP1=0, select bank1
   537  067E  0188               	clrf	8	;volatile
   538  067F                     l988:
   539                           
   540                           ;main.c: 62:     *_my_PORTD = 0X00;
   541  067F  1283               	bcf	3,5	;RP0=0, select bank0
   542  0680  1303               	bcf	3,6	;RP1=0, select bank0
   543  0681  0188               	clrf	8	;volatile
   544  0682                     l990:
   545                           
   546                           ;main.c: 63:     *_my_TRISC = 0X00;
   547  0682  1683               	bsf	3,5	;RP0=1, select bank1
   548  0683  1303               	bcf	3,6	;RP1=0, select bank1
   549  0684  0187               	clrf	7	;volatile
   550  0685                     l992:
   551                           
   552                           ;main.c: 64:     *_my_PORTC = 0X00;
   553  0685  1283               	bcf	3,5	;RP0=0, select bank0
   554  0686  1303               	bcf	3,6	;RP1=0, select bank0
   555  0687  0187               	clrf	7	;volatile
   556  0688                     l994:
   557                           
   558                           ;main.c: 65:     *_my_TRISB = 0X00;
   559  0688  1683               	bsf	3,5	;RP0=1, select bank1
   560  0689  1303               	bcf	3,6	;RP1=0, select bank1
   561  068A  0186               	clrf	6	;volatile
   562  068B                     l996:
   563                           
   564                           ;main.c: 66:     *_my_PORTB = 0X00;
   565  068B  1283               	bcf	3,5	;RP0=0, select bank0
   566  068C  1303               	bcf	3,6	;RP1=0, select bank0
   567  068D  0186               	clrf	6	;volatile
   568  068E                     l998:
   569                           
   570                           ;main.c: 76:         for (c = 0;c<2;c++){
   571  068E  01FC               	clrf	main@c	;volatile
   572  068F  01FD               	clrf	main@c+1	;volatile
   573  0690                     l1000:
   574  0690  087D               	movf	main@c+1,w	;volatile
   575  0691  3A80               	xorlw	128
   576  0692  00FF               	movwf	btemp+1
   577  0693  3080               	movlw	128
   578  0694  027F               	subwf	btemp+1,w
   579  0695  1D03               	skipz
   580  0696  2E99               	goto	u35
   581  0697  3002               	movlw	2
   582  0698  027C               	subwf	main@c,w	;volatile
   583  0699                     u35:
   584  0699  1C03               	skipc
   585  069A  2E9C               	goto	u31
   586  069B  2E9D               	goto	u30
   587  069C                     u31:
   588  069C  2E9E               	goto	l1004
   589  069D                     u30:
   590  069D  2EAA               	goto	l1010
   591  069E                     l1004:
   592                           
   593                           ;main.c: 77:             flip_flop_func();
   594  069E  120A  118A  264A  120A  118A  	fcall	_flip_flop_func
   595  06A3                     l1006:
   596                           
   597                           ;main.c: 78:         }
   598  06A3  3001               	movlw	1
   599  06A4  07FC               	addwf	main@c,f	;volatile
   600  06A5  1803               	skipnc
   601  06A6  0AFD               	incf	main@c+1,f	;volatile
   602  06A7  3000               	movlw	0
   603  06A8  07FD               	addwf	main@c+1,f	;volatile
   604  06A9  2E90               	goto	l1000
   605  06AA                     l1010:
   606                           
   607                           ;main.c: 80:         for (c = 0;c<2;c++){
   608  06AA  01FC               	clrf	main@c	;volatile
   609  06AB  01FD               	clrf	main@c+1	;volatile
   610  06AC                     l1012:
   611  06AC  087D               	movf	main@c+1,w	;volatile
   612  06AD  3A80               	xorlw	128
   613  06AE  00FF               	movwf	btemp+1
   614  06AF  3080               	movlw	128
   615  06B0  027F               	subwf	btemp+1,w
   616  06B1  1D03               	skipz
   617  06B2  2EB5               	goto	u45
   618  06B3  3002               	movlw	2
   619  06B4  027C               	subwf	main@c,w	;volatile
   620  06B5                     u45:
   621  06B5  1C03               	skipc
   622  06B6  2EB8               	goto	u41
   623  06B7  2EB9               	goto	u40
   624  06B8                     u41:
   625  06B8  2EBA               	goto	l1016
   626  06B9                     u40:
   627  06B9  2E8E               	goto	l998
   628  06BA                     l1016:
   629                           
   630                           ;main.c: 81:             walking_lights_func();
   631  06BA  120A  118A  26C9  120A  118A  	fcall	_walking_lights_func
   632  06BF                     l1018:
   633                           
   634                           ;main.c: 82:         }
   635  06BF  3001               	movlw	1
   636  06C0  07FC               	addwf	main@c,f	;volatile
   637  06C1  1803               	skipnc
   638  06C2  0AFD               	incf	main@c+1,f	;volatile
   639  06C3  3000               	movlw	0
   640  06C4  07FD               	addwf	main@c+1,f	;volatile
   641  06C5  2EAC               	goto	l1012
   642  06C6  120A  118A  2800   	ljmp	start
   643  06C9                     __end_of_main:
   644                           
   645                           	psect	text1
   646  06C9                     __ptext1:	
   647 ;; *************** function _walking_lights_func *****************
   648 ;; Defined at:
   649 ;;		line 54 in file "configration.c"
   650 ;; Parameters:    Size  Location     Type
   651 ;;		None
   652 ;; Auto vars:     Size  Location     Type
   653 ;;		None
   654 ;; Return value:  Size  Location     Type
   655 ;;                  1    wreg      void 
   656 ;; Registers used:
   657 ;;		wreg, status,2
   658 ;; Tracked objects:
   659 ;;		On entry : 0/0
   660 ;;		On exit  : 0/0
   661 ;;		Unchanged: 0/0
   662 ;; Data sizes:     COMMON   BANK0   BANK1   BANK3   BANK2
   663 ;;      Params:         0       0       0       0       0
   664 ;;      Locals:         0       0       0       0       0
   665 ;;      Temps:          2       0       0       0       0
   666 ;;      Totals:         2       0       0       0       0
   667 ;;Total ram usage:        2 bytes
   668 ;; Hardware stack levels used: 1
   669 ;; This function calls:
   670 ;;		Nothing
   671 ;; This function is called by:
   672 ;;		_main
   673 ;; This function uses a non-reentrant model
   674 ;;
   675                           
   676  06C9                     _walking_lights_func:	
   677                           ;psect for function _walking_lights_func
   678                           
   679  06C9                     l872:	
   680                           ;incstack = 0
   681                           ; Regs used in _walking_lights_func: [wreg+status,2]
   682                           
   683                           
   684                           ;configration.c: 55:     my_PORTBbits->PORTB5 = 1;
   685  06C9  30FF               	movlw	255
   686  06CA  1283               	bcf	3,5	;RP0=0, select bank0
   687  06CB  1303               	bcf	3,6	;RP1=0, select bank0
   688  06CC  0088               	movwf	8	;volatile
   689  06CD                     l874:
   690                           
   691                           ;configration.c: 56:     _delay((unsigned long)((100)*(4000000/4000.0)));
   692  06CD  1787               	bsf	7,7	;volatile
   693  06CE                     l876:
   694                           
   695                           ;configration.c: 57:     *_my_PORTD = 0XFF;
   696  06CE  1406               	bsf	6,0	;volatile
   697                           
   698                           ;configration.c: 58:     my_PORTCbits->PORTC1 = 1;
   699  06CF  3082               	movlw	130
   700  06D0  00FB               	movwf	??_walking_lights_func+1
   701  06D1  30DD               	movlw	221
   702  06D2  00FA               	movwf	??_walking_lights_func
   703  06D3                     u57:
   704  06D3  0BFA               	decfsz	??_walking_lights_func,f
   705  06D4  2ED3               	goto	u57
   706  06D5  0BFB               	decfsz	??_walking_lights_func+1,f
   707  06D6  2ED3               	goto	u57
   708  06D7  2ED8               	nop2
   709  06D8                     l878:
   710                           
   711                           ;configration.c: 59:     my_PORTBbits->PORTB6 = 1;
   712  06D8  1283               	bcf	3,5	;RP0=0, select bank0
   713  06D9  1303               	bcf	3,6	;RP1=0, select bank0
   714  06DA  0188               	clrf	8	;volatile
   715  06DB                     l880:
   716                           
   717                           ;configration.c: 60:     _delay((unsigned long)((100)*(4000000/4000.0)));
   718  06DB  1707               	bsf	7,6	;volatile
   719  06DC                     l882:
   720                           
   721                           ;configration.c: 61:     *_my_PORTD = 0X00;
   722  06DC  1486               	bsf	6,1	;volatile
   723  06DD                     l884:
   724                           
   725                           ;configration.c: 62:     my_PORTCbits->PORTC0 = 1;
   726  06DD  3082               	movlw	130
   727  06DE  00FB               	movwf	??_walking_lights_func+1
   728  06DF  30DD               	movlw	221
   729  06E0  00FA               	movwf	??_walking_lights_func
   730  06E1                     u67:
   731  06E1  0BFA               	decfsz	??_walking_lights_func,f
   732  06E2  2EE1               	goto	u67
   733  06E3  0BFB               	decfsz	??_walking_lights_func+1,f
   734  06E4  2EE1               	goto	u67
   735  06E5  2EE6               	nop2
   736  06E6                     l886:
   737                           
   738                           ;configration.c: 63:     my_PORTBbits->PORTB7 = 1;
   739  06E6  30FF               	movlw	255
   740  06E7  1283               	bcf	3,5	;RP0=0, select bank0
   741  06E8  1303               	bcf	3,6	;RP1=0, select bank0
   742  06E9  0088               	movwf	8	;volatile
   743  06EA                     l888:
   744                           
   745                           ;configration.c: 64:     _delay((unsigned long)((100)*(4000000/4000.0)));
   746  06EA  1687               	bsf	7,5	;volatile
   747  06EB                     l890:
   748                           
   749                           ;configration.c: 65:     *_my_PORTD = 0XFF;
   750  06EB  1506               	bsf	6,2	;volatile
   751  06EC                     l892:
   752                           
   753                           ;configration.c: 66:     my_PORTCbits->PORTC0 = 0;
   754  06EC  3082               	movlw	130
   755  06ED  00FB               	movwf	??_walking_lights_func+1
   756  06EE  30DD               	movlw	221
   757  06EF  00FA               	movwf	??_walking_lights_func
   758  06F0                     u77:
   759  06F0  0BFA               	decfsz	??_walking_lights_func,f
   760  06F1  2EF0               	goto	u77
   761  06F2  0BFB               	decfsz	??_walking_lights_func+1,f
   762  06F3  2EF0               	goto	u77
   763  06F4  2EF5               	nop2
   764                           
   765                           ;configration.c: 67:     my_PORTBbits->PORTB7 = 0;
   766  06F5  1283               	bcf	3,5	;RP0=0, select bank0
   767  06F6  1303               	bcf	3,6	;RP1=0, select bank0
   768  06F7  0188               	clrf	8	;volatile
   769  06F8                     l894:
   770                           
   771                           ;configration.c: 68:     _delay((unsigned long)((100)*(4000000/4000.0)));
   772  06F8  1607               	bsf	7,4	;volatile
   773  06F9                     l896:
   774                           
   775                           ;configration.c: 69:     *_my_PORTD = 0X00;
   776  06F9  1586               	bsf	6,3	;volatile
   777  06FA                     l898:
   778                           
   779                           ;configration.c: 70:     my_PORTCbits->PORTC1 = 0;
   780  06FA  3082               	movlw	130
   781  06FB  00FB               	movwf	??_walking_lights_func+1
   782  06FC  30DD               	movlw	221
   783  06FD  00FA               	movwf	??_walking_lights_func
   784  06FE                     u87:
   785  06FE  0BFA               	decfsz	??_walking_lights_func,f
   786  06FF  2EFE               	goto	u87
   787  0700  0BFB               	decfsz	??_walking_lights_func+1,f
   788  0701  2EFE               	goto	u87
   789  0702  2F03               	nop2
   790  0703                     l900:
   791                           
   792                           ;configration.c: 71:     my_PORTBbits->PORTB6 = 0;
   793  0703  30FF               	movlw	255
   794  0704  1283               	bcf	3,5	;RP0=0, select bank0
   795  0705  1303               	bcf	3,6	;RP1=0, select bank0
   796  0706  0088               	movwf	8	;volatile
   797  0707                     l902:
   798                           
   799                           ;configration.c: 72:     _delay((unsigned long)((100)*(4000000/4000.0)));
   800  0707  1587               	bsf	7,3	;volatile
   801  0708                     l904:
   802                           
   803                           ;configration.c: 73:     *_my_PORTD = 0XFF;
   804  0708  1606               	bsf	6,4	;volatile
   805  0709                     l906:
   806                           
   807                           ;configration.c: 74:     my_PORTCbits->PORTC2 = 0;
   808  0709  3082               	movlw	130
   809  070A  00FB               	movwf	??_walking_lights_func+1
   810  070B  30DD               	movlw	221
   811  070C  00FA               	movwf	??_walking_lights_func
   812  070D                     u97:
   813  070D  0BFA               	decfsz	??_walking_lights_func,f
   814  070E  2F0D               	goto	u97
   815  070F  0BFB               	decfsz	??_walking_lights_func+1,f
   816  0710  2F0D               	goto	u97
   817  0711  2F12               	nop2
   818  0712                     l908:
   819                           
   820                           ;configration.c: 75:     my_PORTBbits->PORTB5 = 0;
   821  0712  1283               	bcf	3,5	;RP0=0, select bank0
   822  0713  1303               	bcf	3,6	;RP1=0, select bank0
   823  0714  0188               	clrf	8	;volatile
   824  0715                     l910:
   825                           
   826                           ;configration.c: 76:     _delay((unsigned long)((100)*(4000000/4000.0)));
   827  0715  1507               	bsf	7,2	;volatile
   828  0716                     l912:
   829                           
   830                           ;configration.c: 77:     *_my_PORTD = 0X00;
   831  0716  1686               	bsf	6,5	;volatile
   832                           
   833                           ;configration.c: 78:     my_PORTCbits->PORTC3 = 0;
   834  0717  3082               	movlw	130
   835  0718  00FB               	movwf	??_walking_lights_func+1
   836  0719  30DD               	movlw	221
   837  071A  00FA               	movwf	??_walking_lights_func
   838  071B                     u107:
   839  071B  0BFA               	decfsz	??_walking_lights_func,f
   840  071C  2F1B               	goto	u107
   841  071D  0BFB               	decfsz	??_walking_lights_func+1,f
   842  071E  2F1B               	goto	u107
   843  071F  2F20               	nop2
   844                           
   845                           ;configration.c: 79:     my_PORTBbits->PORTB4 = 0;
   846  0720  30FF               	movlw	255
   847  0721  1283               	bcf	3,5	;RP0=0, select bank0
   848  0722  1303               	bcf	3,6	;RP1=0, select bank0
   849  0723  0088               	movwf	8	;volatile
   850  0724                     l914:
   851                           
   852                           ;configration.c: 80:     _delay((unsigned long)((100)*(4000000/4000.0)));
   853  0724  1487               	bsf	7,1	;volatile
   854  0725                     l916:
   855                           
   856                           ;configration.c: 81:     *_my_PORTD = 0XFF;
   857  0725  1706               	bsf	6,6	;volatile
   858                           
   859                           ;configration.c: 82:     my_PORTCbits->PORTC4 = 0;
   860  0726  3082               	movlw	130
   861  0727  00FB               	movwf	??_walking_lights_func+1
   862  0728  30DD               	movlw	221
   863  0729  00FA               	movwf	??_walking_lights_func
   864  072A                     u117:
   865  072A  0BFA               	decfsz	??_walking_lights_func,f
   866  072B  2F2A               	goto	u117
   867  072C  0BFB               	decfsz	??_walking_lights_func+1,f
   868  072D  2F2A               	goto	u117
   869  072E  2F2F               	nop2
   870  072F                     l918:
   871                           
   872                           ;configration.c: 83:     my_PORTBbits->PORTB3 = 0;
   873  072F  1283               	bcf	3,5	;RP0=0, select bank0
   874  0730  1303               	bcf	3,6	;RP1=0, select bank0
   875  0731  0188               	clrf	8	;volatile
   876  0732                     l920:
   877                           
   878                           ;configration.c: 84:     _delay((unsigned long)((100)*(4000000/4000.0)));
   879  0732  1407               	bsf	7,0	;volatile
   880  0733                     l922:
   881                           
   882                           ;configration.c: 85:     *_my_PORTD = 0X00;
   883  0733  1786               	bsf	6,7	;volatile
   884  0734                     l924:
   885                           
   886                           ;configration.c: 86:     my_PORTCbits->PORTC5 = 0;
   887  0734  3082               	movlw	130
   888  0735  00FB               	movwf	??_walking_lights_func+1
   889  0736  30DD               	movlw	221
   890  0737  00FA               	movwf	??_walking_lights_func
   891  0738                     u127:
   892  0738  0BFA               	decfsz	??_walking_lights_func,f
   893  0739  2F38               	goto	u127
   894  073A  0BFB               	decfsz	??_walking_lights_func+1,f
   895  073B  2F38               	goto	u127
   896  073C  2F3D               	nop2
   897  073D                     l926:
   898                           
   899                           ;configration.c: 87:     my_PORTBbits->PORTB2 = 0;
   900  073D  30FF               	movlw	255
   901  073E  1283               	bcf	3,5	;RP0=0, select bank0
   902  073F  1303               	bcf	3,6	;RP1=0, select bank0
   903  0740  0088               	movwf	8	;volatile
   904  0741                     l928:
   905                           
   906                           ;configration.c: 88:     _delay((unsigned long)((100)*(4000000/4000.0)));
   907  0741  1007               	bcf	7,0	;volatile
   908  0742                     l930:
   909                           
   910                           ;configration.c: 89:     *_my_PORTD = 0XFF;
   911  0742  1386               	bcf	6,7	;volatile
   912  0743                     l932:
   913                           
   914                           ;configration.c: 90:     my_PORTCbits->PORTC6 = 0;
   915  0743  3082               	movlw	130
   916  0744  00FB               	movwf	??_walking_lights_func+1
   917  0745  30DD               	movlw	221
   918  0746  00FA               	movwf	??_walking_lights_func
   919  0747                     u137:
   920  0747  0BFA               	decfsz	??_walking_lights_func,f
   921  0748  2F47               	goto	u137
   922  0749  0BFB               	decfsz	??_walking_lights_func+1,f
   923  074A  2F47               	goto	u137
   924  074B  2F4C               	nop2
   925                           
   926                           ;configration.c: 91:     my_PORTBbits->PORTB1 = 0;
   927  074C  1283               	bcf	3,5	;RP0=0, select bank0
   928  074D  1303               	bcf	3,6	;RP1=0, select bank0
   929  074E  0188               	clrf	8	;volatile
   930  074F                     l934:
   931                           
   932                           ;configration.c: 92:     _delay((unsigned long)((100)*(4000000/4000.0)));
   933  074F  1087               	bcf	7,1	;volatile
   934  0750                     l936:
   935                           
   936                           ;configration.c: 93:     *_my_PORTD = 0X00;
   937  0750  1306               	bcf	6,6	;volatile
   938  0751                     l938:
   939                           
   940                           ;configration.c: 94:     my_PORTCbits->PORTC7 = 0;
   941  0751  3082               	movlw	130
   942  0752  00FB               	movwf	??_walking_lights_func+1
   943  0753  30DD               	movlw	221
   944  0754  00FA               	movwf	??_walking_lights_func
   945  0755                     u147:
   946  0755  0BFA               	decfsz	??_walking_lights_func,f
   947  0756  2F55               	goto	u147
   948  0757  0BFB               	decfsz	??_walking_lights_func+1,f
   949  0758  2F55               	goto	u147
   950  0759  2F5A               	nop2
   951  075A                     l940:
   952                           
   953                           ;configration.c: 95:     my_PORTBbits->PORTB0 = 0;
   954  075A  30FF               	movlw	255
   955  075B  1283               	bcf	3,5	;RP0=0, select bank0
   956  075C  1303               	bcf	3,6	;RP1=0, select bank0
   957  075D  0088               	movwf	8	;volatile
   958  075E                     l942:
   959                           
   960                           ;configration.c: 96:     _delay((unsigned long)((100)*(4000000/4000.0)));
   961  075E  1107               	bcf	7,2	;volatile
   962  075F                     l944:
   963                           
   964                           ;configration.c: 97:     return;
   965  075F  1286               	bcf	6,5	;volatile
   966  0760                     l946:
   967                           
   968                           ;configration.c: 98: }
   969  0760  3082               	movlw	130
   970  0761  00FB               	movwf	??_walking_lights_func+1
   971  0762  30DD               	movlw	221
   972  0763  00FA               	movwf	??_walking_lights_func
   973  0764                     u157:
   974  0764  0BFA               	decfsz	??_walking_lights_func,f
   975  0765  2F64               	goto	u157
   976  0766  0BFB               	decfsz	??_walking_lights_func+1,f
   977  0767  2F64               	goto	u157
   978  0768  2F69               	nop2
   979  0769                     l948:
   980  0769  1283               	bcf	3,5	;RP0=0, select bank0
   981  076A  1303               	bcf	3,6	;RP1=0, select bank0
   982  076B  0188               	clrf	8	;volatile
   983  076C                     l950:
   984  076C  1187               	bcf	7,3	;volatile
   985  076D                     l952:
   986  076D  1206               	bcf	6,4	;volatile
   987  076E  3082               	movlw	130
   988  076F  00FB               	movwf	??_walking_lights_func+1
   989  0770  30DD               	movlw	221
   990  0771  00FA               	movwf	??_walking_lights_func
   991  0772                     u167:
   992  0772  0BFA               	decfsz	??_walking_lights_func,f
   993  0773  2F72               	goto	u167
   994  0774  0BFB               	decfsz	??_walking_lights_func+1,f
   995  0775  2F72               	goto	u167
   996  0776  2F77               	nop2
   997  0777  30FF               	movlw	255
   998  0778  1283               	bcf	3,5	;RP0=0, select bank0
   999  0779  1303               	bcf	3,6	;RP1=0, select bank0
  1000  077A  0088               	movwf	8	;volatile
  1001  077B                     l954:
  1002  077B  1207               	bcf	7,4	;volatile
  1003  077C                     l956:
  1004  077C  1186               	bcf	6,3	;volatile
  1005  077D  3082               	movlw	130
  1006  077E  00FB               	movwf	??_walking_lights_func+1
  1007  077F  30DD               	movlw	221
  1008  0780  00FA               	movwf	??_walking_lights_func
  1009  0781                     u177:
  1010  0781  0BFA               	decfsz	??_walking_lights_func,f
  1011  0782  2F81               	goto	u177
  1012  0783  0BFB               	decfsz	??_walking_lights_func+1,f
  1013  0784  2F81               	goto	u177
  1014  0785  2F86               	nop2
  1015  0786                     l958:
  1016  0786  1283               	bcf	3,5	;RP0=0, select bank0
  1017  0787  1303               	bcf	3,6	;RP1=0, select bank0
  1018  0788  0188               	clrf	8	;volatile
  1019  0789                     l960:
  1020  0789  1287               	bcf	7,5	;volatile
  1021  078A                     l962:
  1022  078A  1106               	bcf	6,2	;volatile
  1023  078B                     l964:
  1024  078B  3082               	movlw	130
  1025  078C  00FB               	movwf	??_walking_lights_func+1
  1026  078D  30DD               	movlw	221
  1027  078E  00FA               	movwf	??_walking_lights_func
  1028  078F                     u187:
  1029  078F  0BFA               	decfsz	??_walking_lights_func,f
  1030  0790  2F8F               	goto	u187
  1031  0791  0BFB               	decfsz	??_walking_lights_func+1,f
  1032  0792  2F8F               	goto	u187
  1033  0793  2F94               	nop2
  1034  0794                     l966:
  1035  0794  30FF               	movlw	255
  1036  0795  1283               	bcf	3,5	;RP0=0, select bank0
  1037  0796  1303               	bcf	3,6	;RP1=0, select bank0
  1038  0797  0088               	movwf	8	;volatile
  1039  0798                     l968:
  1040  0798  1307               	bcf	7,6	;volatile
  1041  0799                     l970:
  1042  0799  1086               	bcf	6,1	;volatile
  1043  079A                     l972:
  1044  079A  3082               	movlw	130
  1045  079B  00FB               	movwf	??_walking_lights_func+1
  1046  079C  30DD               	movlw	221
  1047  079D  00FA               	movwf	??_walking_lights_func
  1048  079E                     u197:
  1049  079E  0BFA               	decfsz	??_walking_lights_func,f
  1050  079F  2F9E               	goto	u197
  1051  07A0  0BFB               	decfsz	??_walking_lights_func+1,f
  1052  07A1  2F9E               	goto	u197
  1053  07A2  2FA3               	nop2
  1054  07A3  1283               	bcf	3,5	;RP0=0, select bank0
  1055  07A4  1303               	bcf	3,6	;RP1=0, select bank0
  1056  07A5  0188               	clrf	8	;volatile
  1057  07A6                     l974:
  1058  07A6  1387               	bcf	7,7	;volatile
  1059  07A7                     l976:
  1060  07A7  1006               	bcf	6,0	;volatile
  1061  07A8                     l978:
  1062  07A8  3082               	movlw	130
  1063  07A9  00FB               	movwf	??_walking_lights_func+1
  1064  07AA  30DD               	movlw	221
  1065  07AB  00FA               	movwf	??_walking_lights_func
  1066  07AC                     u207:
  1067  07AC  0BFA               	decfsz	??_walking_lights_func,f
  1068  07AD  2FAC               	goto	u207
  1069  07AE  0BFB               	decfsz	??_walking_lights_func+1,f
  1070  07AF  2FAC               	goto	u207
  1071  07B0  2FB1               	nop2
  1072  07B1                     l54:
  1073  07B1  0008               	return
  1074  07B2                     __end_of_walking_lights_func:
  1075                           
  1076                           	psect	text2
  1077  0628                     __ptext2:	
  1078 ;; *************** function _set_all_ports *****************
  1079 ;; Defined at:
  1080 ;;		line 23 in file "configration.c"
  1081 ;; Parameters:    Size  Location     Type
  1082 ;;		None
  1083 ;; Auto vars:     Size  Location     Type
  1084 ;;		None
  1085 ;; Return value:  Size  Location     Type
  1086 ;;                  1    wreg      void 
  1087 ;; Registers used:
  1088 ;;		status,2
  1089 ;; Tracked objects:
  1090 ;;		On entry : 0/0
  1091 ;;		On exit  : 0/0
  1092 ;;		Unchanged: 0/0
  1093 ;; Data sizes:     COMMON   BANK0   BANK1   BANK3   BANK2
  1094 ;;      Params:         0       0       0       0       0
  1095 ;;      Locals:         0       0       0       0       0
  1096 ;;      Temps:          0       0       0       0       0
  1097 ;;      Totals:         0       0       0       0       0
  1098 ;;Total ram usage:        0 bytes
  1099 ;; Hardware stack levels used: 1
  1100 ;; This function calls:
  1101 ;;		Nothing
  1102 ;; This function is called by:
  1103 ;;		_main
  1104 ;; This function uses a non-reentrant model
  1105 ;;
  1106                           
  1107  0628                     _set_all_ports:	
  1108                           ;psect for function _set_all_ports
  1109                           
  1110  0628                     l706:	
  1111                           ;incstack = 0
  1112                           ; Regs used in _set_all_ports: [status,2]
  1113                           
  1114                           
  1115                           ;configration.c: 24:     *_my_PORTD = 0x00;
  1116  0628  1683               	bsf	3,5	;RP0=1, select bank1
  1117  0629  1303               	bcf	3,6	;RP1=0, select bank1
  1118  062A  0185               	clrf	5	;volatile
  1119                           
  1120                           ;configration.c: 25:     *_my_PORTE = 0x00;
  1121  062B  0186               	clrf	6	;volatile
  1122                           
  1123                           ;configration.c: 26:     _delay((unsigned long)((100)*(4000000/4000.0)));
  1124  062C  0187               	clrf	7	;volatile
  1125                           
  1126                           ;configration.c: 27: 
  1127  062D  0188               	clrf	8	;volatile
  1128                           
  1129                           ;configration.c: 28: }
  1130  062E  0189               	clrf	9	;volatile
  1131                           
  1132                           ;configration.c: 30: 
  1133  062F  1283               	bcf	3,5	;RP0=0, select bank0
  1134  0630  1303               	bcf	3,6	;RP1=0, select bank0
  1135  0631  0185               	clrf	5	;volatile
  1136                           
  1137                           ;configration.c: 31: 
  1138  0632  0186               	clrf	6	;volatile
  1139                           
  1140                           ;configration.c: 32: void walking_lights_func(void){
  1141  0633  0187               	clrf	7	;volatile
  1142                           
  1143                           ;configration.c: 33:     *_my_PORTD = 0XFF;
  1144  0634  0188               	clrf	8	;volatile
  1145                           
  1146                           ;configration.c: 34:     my_PORTCbits->PORTC7 = 1;
  1147  0635  0189               	clrf	9	;volatile
  1148  0636                     l48:
  1149  0636  0008               	return
  1150  0637                     __end_of_set_all_ports:
  1151                           
  1152                           	psect	text3
  1153  0613                     __ptext3:	
  1154 ;; *************** function _init_config_settings *****************
  1155 ;; Defined at:
  1156 ;;		line 12 in file "configration.c"
  1157 ;; Parameters:    Size  Location     Type
  1158 ;;		None
  1159 ;; Auto vars:     Size  Location     Type
  1160 ;;		None
  1161 ;; Return value:  Size  Location     Type
  1162 ;;                  1    wreg      void 
  1163 ;; Registers used:
  1164 ;;		None
  1165 ;; Tracked objects:
  1166 ;;		On entry : 0/0
  1167 ;;		On exit  : 0/0
  1168 ;;		Unchanged: 0/0
  1169 ;; Data sizes:     COMMON   BANK0   BANK1   BANK3   BANK2
  1170 ;;      Params:         0       0       0       0       0
  1171 ;;      Locals:         0       0       0       0       0
  1172 ;;      Temps:          0       0       0       0       0
  1173 ;;      Totals:         0       0       0       0       0
  1174 ;;Total ram usage:        0 bytes
  1175 ;; Hardware stack levels used: 1
  1176 ;; This function calls:
  1177 ;;		Nothing
  1178 ;; This function is called by:
  1179 ;;		_main
  1180 ;; This function uses a non-reentrant model
  1181 ;;
  1182                           
  1183  0613                     _init_config_settings:	
  1184                           ;psect for function _init_config_settings
  1185                           
  1186  0613                     l45:	
  1187                           ;incstack = 0
  1188                           ; Regs used in _init_config_settings: []
  1189                           
  1190  0613  0008               	return
  1191  0614                     __end_of_init_config_settings:
  1192                           
  1193                           	psect	text4
  1194  064A                     __ptext4:	
  1195 ;; *************** function _flip_flop_func *****************
  1196 ;; Defined at:
  1197 ;;		line 36 in file "configration.c"
  1198 ;; Parameters:    Size  Location     Type
  1199 ;;		None
  1200 ;; Auto vars:     Size  Location     Type
  1201 ;;		None
  1202 ;; Return value:  Size  Location     Type
  1203 ;;                  1    wreg      void 
  1204 ;; Registers used:
  1205 ;;		wreg, status,2
  1206 ;; Tracked objects:
  1207 ;;		On entry : 0/0
  1208 ;;		On exit  : 0/0
  1209 ;;		Unchanged: 0/0
  1210 ;; Data sizes:     COMMON   BANK0   BANK1   BANK3   BANK2
  1211 ;;      Params:         0       0       0       0       0
  1212 ;;      Locals:         0       0       0       0       0
  1213 ;;      Temps:          2       0       0       0       0
  1214 ;;      Totals:         2       0       0       0       0
  1215 ;;Total ram usage:        2 bytes
  1216 ;; Hardware stack levels used: 1
  1217 ;; This function calls:
  1218 ;;		Nothing
  1219 ;; This function is called by:
  1220 ;;		_main
  1221 ;; This function uses a non-reentrant model
  1222 ;;
  1223                           
  1224  064A                     _flip_flop_func:	
  1225                           ;psect for function _flip_flop_func
  1226                           
  1227  064A                     l708:	
  1228                           ;incstack = 0
  1229                           ; Regs used in _flip_flop_func: [wreg+status,2]
  1230                           
  1231                           
  1232                           ;configration.c: 37:     *_my_PORTD = 0X00;
  1233  064A  30FF               	movlw	255
  1234  064B  1283               	bcf	3,5	;RP0=0, select bank0
  1235  064C  1303               	bcf	3,6	;RP1=0, select bank0
  1236  064D  0085               	movwf	5	;volatile
  1237                           
  1238                           ;configration.c: 38:     my_PORTCbits->PORTC6 = 1;
  1239  064E  30FF               	movlw	255
  1240  064F  0086               	movwf	6	;volatile
  1241                           
  1242                           ;configration.c: 39:     my_PORTBbits->PORTB1 = 1;
  1243  0650  30FF               	movlw	255
  1244  0651  0087               	movwf	7	;volatile
  1245                           
  1246                           ;configration.c: 40:     _delay((unsigned long)((100)*(4000000/4000.0)));
  1247  0652  30FF               	movlw	255
  1248  0653  0088               	movwf	8	;volatile
  1249                           
  1250                           ;configration.c: 41:     *_my_PORTD = 0XFF;
  1251  0654  30FF               	movlw	255
  1252  0655  0089               	movwf	9	;volatile
  1253                           
  1254                           ;configration.c: 42:     my_PORTCbits->PORTC5 = 1;
  1255  0656  3082               	movlw	130
  1256  0657  00FB               	movwf	??_flip_flop_func+1
  1257  0658  30DD               	movlw	221
  1258  0659  00FA               	movwf	??_flip_flop_func
  1259  065A                     u217:
  1260  065A  0BFA               	decfsz	??_flip_flop_func,f
  1261  065B  2E5A               	goto	u217
  1262  065C  0BFB               	decfsz	??_flip_flop_func+1,f
  1263  065D  2E5A               	goto	u217
  1264  065E  2E5F               	nop2
  1265  065F                     l710:
  1266                           
  1267                           ;configration.c: 43:     my_PORTBbits->PORTB2 = 1;
  1268  065F  1283               	bcf	3,5	;RP0=0, select bank0
  1269  0660  1303               	bcf	3,6	;RP1=0, select bank0
  1270  0661  0185               	clrf	5	;volatile
  1271  0662                     l712:
  1272                           
  1273                           ;configration.c: 44:     _delay((unsigned long)((100)*(4000000/4000.0)));
  1274  0662  0186               	clrf	6	;volatile
  1275  0663                     l714:
  1276                           
  1277                           ;configration.c: 45:     *_my_PORTD = 0X00;
  1278  0663  0187               	clrf	7	;volatile
  1279  0664                     l716:
  1280                           
  1281                           ;configration.c: 46:     my_PORTCbits->PORTC4 = 1;
  1282  0664  0188               	clrf	8	;volatile
  1283  0665                     l718:
  1284                           
  1285                           ;configration.c: 47:     my_PORTBbits->PORTB3 = 1;
  1286  0665  0189               	clrf	9	;volatile
  1287  0666                     l720:
  1288                           
  1289                           ;configration.c: 48:     _delay((unsigned long)((100)*(4000000/4000.0)));
  1290  0666  3082               	movlw	130
  1291  0667  00FB               	movwf	??_flip_flop_func+1
  1292  0668  30DD               	movlw	221
  1293  0669  00FA               	movwf	??_flip_flop_func
  1294  066A                     u227:
  1295  066A  0BFA               	decfsz	??_flip_flop_func,f
  1296  066B  2E6A               	goto	u227
  1297  066C  0BFB               	decfsz	??_flip_flop_func+1,f
  1298  066D  2E6A               	goto	u227
  1299  066E  2E6F               	nop2
  1300  066F                     l51:
  1301  066F  0008               	return
  1302  0670                     __end_of_flip_flop_func:
  1303  007E                     btemp	set	126	;btemp
  1304  007E                     wtemp0	set	126
  1305                           
  1306                           	psect	idloc
  1307                           
  1308                           ;Config register IDLOC0 @ 0x2000
  1309                           ;	unspecified, using default values
  1310  2000                     	org	8192
  1311  2000  3FFF               	dw	16383
  1312                           
  1313                           ;Config register IDLOC1 @ 0x2001
  1314                           ;	unspecified, using default values
  1315  2001                     	org	8193
  1316  2001  3FFF               	dw	16383
  1317                           
  1318                           ;Config register IDLOC2 @ 0x2002
  1319                           ;	unspecified, using default values
  1320  2002                     	org	8194
  1321  2002  3FFF               	dw	16383
  1322                           
  1323                           ;Config register IDLOC3 @ 0x2003
  1324                           ;	unspecified, using default values
  1325  2003                     	org	8195
  1326  2003  3FFF               	dw	16383
  1327                           
  1328                           	psect	config
  1329                           
  1330                           ;Config register CONFIG @ 0x2007
  1331                           ;	Oscillator Selection bits
  1332                           ;	FOSC = XT, XT oscillator
  1333                           ;	Watchdog Timer Enable bit
  1334                           ;	WDTE = OFF, WDT disabled
  1335                           ;	Power-up Timer Enable bit
  1336                           ;	PWRTE = OFF, PWRT disabled
  1337                           ;	Brown-out Reset Enable bit
  1338                           ;	BOREN = OFF, BOR disabled
  1339                           ;	Low-Voltage (Single-Supply) In-Circuit Serial Programming Enable bit
  1340                           ;	LVP = OFF, RB3 is digital I/O, HV on MCLR must be used for programming
  1341                           ;	Data EEPROM Memory Code Protection bit
  1342                           ;	CPD = OFF, Data EEPROM code protection off
  1343                           ;	Flash Program Memory Write Enable bits
  1344                           ;	WRT = OFF, Write protection off; all program memory may be written to by EECON control
  1345                           ;	In-Circuit Debugger Mode bit
  1346                           ;	DEBUG = 0x1, unprogrammed default
  1347                           ;	Flash Program Memory Code Protection bit
  1348                           ;	CP = OFF, Code protection off
  1349  2007                     	org	8199
  1350  2007  3F39               	dw	16185

Data Sizes:
    Strings     0
    Constant    20
    Data        20
    BSS         0
    Persistent  0
    Stack       0

Auto Spaces:
    Space          Size  Autos    Used
    COMMON           14      4      14
    BANK0            80      0      10
    BANK1            80      0       0
    BANK3            96      0       0
    BANK2            96      0       0

Pointer List with Targets:

    my_PORTEbits	PTR volatile struct _my_PORTEbits size(2) Largest target is 512
		 -> RAM(DATA[512]), 

    my_TRISEbits	PTR volatile struct _my_TRISEbits size(2) Largest target is 512
		 -> RAM(DATA[512]), 

    my_PORTDbits	PTR volatile struct _my_PORTDbits size(2) Largest target is 512
		 -> RAM(DATA[512]), 

    my_TRISDbits	PTR volatile struct _my_TRISDbits size(2) Largest target is 512
		 -> RAM(DATA[512]), 

    my_PORTCbits	PTR volatile struct _my_PORTCbits size(2) Largest target is 512
		 -> RAM(DATA[512]), 

    my_TRISCbits	PTR volatile struct _my_TRISCbits size(2) Largest target is 512
		 -> RAM(DATA[512]), 

    my_PORTBbits	PTR volatile struct _my_PORTBbits size(2) Largest target is 512
		 -> RAM(DATA[512]), 

    my_TRISBbits	PTR volatile struct _my_TRISBbits size(2) Largest target is 512
		 -> RAM(DATA[512]), 

    my_PORTAbits	PTR volatile struct _my_PORTAbits size(2) Largest target is 512
		 -> RAM(DATA[512]), 

    my_TRISAbits	PTR volatile struct _my_TRISAbits size(2) Largest target is 512
		 -> RAM(DATA[512]), 

    _my_PORTE	const PTR volatile unsigned char  size(2) Largest target is 512
		 -> RAM(DATA[512]), 

    _my_TRISE	const PTR volatile unsigned char  size(2) Largest target is 512
		 -> RAM(DATA[512]), 

    _my_PORTD	const PTR volatile unsigned char  size(2) Largest target is 512
		 -> RAM(DATA[512]), 

    _my_TRISD	const PTR volatile unsigned char  size(2) Largest target is 512
		 -> RAM(DATA[512]), 

    _my_PORTC	const PTR volatile unsigned char  size(2) Largest target is 512
		 -> RAM(DATA[512]), 

    _my_TRISC	const PTR volatile unsigned char  size(2) Largest target is 512
		 -> RAM(DATA[512]), 

    _my_PORTB	const PTR volatile unsigned char  size(2) Largest target is 512
		 -> RAM(DATA[512]), 

    _my_TRISB	const PTR volatile unsigned char  size(2) Largest target is 512
		 -> RAM(DATA[512]), 

    _my_PORTA	const PTR volatile unsigned char  size(2) Largest target is 512
		 -> RAM(DATA[512]), 

    _my_TRISA	const PTR volatile unsigned char  size(2) Largest target is 512
		 -> RAM(DATA[512]), 


Critical Paths under _main in COMMON

    _main->_flip_flop_func
    _main->_walking_lights_func

Critical Paths under _main in BANK0

    None.

Critical Paths under _main in BANK1

    None.

Critical Paths under _main in BANK3

    None.

Critical Paths under _main in BANK2

    None.

Call Graph Tables:

 ---------------------------------------------------------------------------------
 (Depth) Function   	        Calls       Base Space   Used Autos Params    Refs
 ---------------------------------------------------------------------------------
 (0) _main                                                 2     2      0      93
                                              2 COMMON     2     2      0
                     _flip_flop_func
               _init_config_settings
                      _set_all_ports
                _walking_lights_func
 ---------------------------------------------------------------------------------
 (1) _walking_lights_func                                  2     2      0       0
                                              0 COMMON     2     2      0
 ---------------------------------------------------------------------------------
 (1) _set_all_ports                                        0     0      0       0
 ---------------------------------------------------------------------------------
 (1) _init_config_settings                                 0     0      0       0
 ---------------------------------------------------------------------------------
 (1) _flip_flop_func                                       2     2      0       0
                                              0 COMMON     2     2      0
 ---------------------------------------------------------------------------------
 Estimated maximum stack depth 1
 ---------------------------------------------------------------------------------

 Call Graph Graphs:

 _main (ROOT)
   _flip_flop_func
   _init_config_settings
   _set_all_ports
   _walking_lights_func

 Address spaces:
Name               Size   Autos  Total    Cost      Usage
BANK3               60      0       0       9        0.0%
BITBANK3            60      0       0       8        0.0%
SFR3                 0      0       0       4        0.0%
BITSFR3              0      0       0       4        0.0%
BANK2               60      0       0      11        0.0%
BITBANK2            60      0       0      10        0.0%
SFR2                 0      0       0       5        0.0%
BITSFR2              0      0       0       5        0.0%
BANK1               50      0       0       7        0.0%
BITBANK1            50      0       0       6        0.0%
SFR1                 0      0       0       2        0.0%
BITSFR1              0      0       0       2        0.0%
BANK0               50      0       A       5       12.5%
BITBANK0            50      0       0       4        0.0%
SFR0                 0      0       0       1        0.0%
BITSFR0              0      0       0       1        0.0%
COMMON               E      4       E       1      100.0%
BITCOMMON            E      0       0       0        0.0%
CODE                 0      0       0       0        0.0%
DATA                 0      0      18      12        0.0%
ABS                  0      0      18       3        0.0%
NULL                 0      0       0       0        0.0%
STACK                0      0       0       2        0.0%
EEDATA             100      0       0       0        0.0%


Microchip Technology PIC Macro Assembler V2.36 build 20220127204148 
Symbol Table                                                                                   Sun Apr 10 15:41:27 2022

                           pc 0002                            l51 066F                            l45 0613  
                          l54 07B1                            l48 0636                            u30 069D  
                          u31 069C                            u40 06B9                            u41 06B8  
                          u35 0699                            u45 06B5                            u57 06D3  
                          u67 06E1                            u77 06F0                            u87 06FE  
                          u97 070D                            fsr 0004                           l710 065F  
                         l720 0666                           l712 0662                           l714 0663  
                         l706 0628                           l716 0664                           l708 064A  
                         l900 0703                           l718 0665                           l910 0715  
                         l902 0707                           l920 0732                           l912 0716  
                         l904 0708                           l930 0742                           l922 0733  
                         l914 0724                           l906 0709                           l940 075A  
                         l932 0743                           l924 0734                           l916 0725  
                         l908 0712                           l950 076C                           l942 075E  
                         l934 074F                           l926 073D                           l918 072F  
                         l960 0789                           l952 076D                           l944 075F  
                         l936 0750                           l928 0741                           l880 06DB  
                         l872 06C9                           l970 0799                           l962 078A  
                         l954 077B                           l946 0760                           l938 0751  
                         l890 06EB                           l882 06DC                           l874 06CD  
                         l972 079A                           l964 078B                           l956 077C  
                         l948 0769                           l892 06EC                           l884 06DD  
                         l876 06CE                           l974 07A6                           l966 0794  
                         l958 0786                           l894 06F8                           l886 06E6  
                         l878 06D8                           l990 0682                           l982 0670  
                         l976 07A7                           l968 0798                           l896 06F9  
                         l888 06EA                           l992 0685                           l984 067A  
                         l978 07A8                           l898 06FA                           l994 0688  
                         l986 067C                           l996 068B                           l988 067F  
                         l998 068E                           u107 071B                           u117 072A  
                         u207 07AC                           u127 0738                           u217 065A  
                         u137 0747                           u227 066A                           u147 0755  
                         u157 0764                           u167 0772                           u177 0781  
                         u187 078F                           u197 079E                           indf 0000  
                        l1000 0690                          l1010 06AA                          l1012 06AC  
                        l1004 069E                          l1006 06A3                          l1016 06BA  
                        l1018 06BF                          _main 0670                          btemp 007E  
      __end_of_flip_flop_func 0670                          start 0000                         ?_main 007A  
                       main@c 007C                         pclath 000A                         status 0003  
                       wtemp0 007E               ?_flip_flop_func 007A               __initialization 07B2  
                __end_of_main 06C9                        ??_main 007C  __end_of_init_config_settings 0614  
                __pdataCOMMON 0070         __end_of_set_all_ports 0637       __end_of__initialization 07FC  
              __pcstackCOMMON 007A                  __pidataBANK0 0614           _walking_lights_func 06C9  
        _init_config_settings 0613                    __pmaintext 0670          ?_walking_lights_func 007A  
                  __stringtab 0003             __end_of__my_PORTA 001B             __end_of__my_PORTB 0017  
           __end_of__my_PORTC 0013             __end_of__my_PORTD 000F             __end_of__my_PORTE 000B  
            ??_flip_flop_func 007A             __end_of__my_TRISA 001D             __end_of__my_TRISB 0019  
           __end_of__my_TRISC 0015             __end_of__my_TRISD 0011             __end_of__my_TRISE 000D  
       ?_init_config_settings 007A         ??_walking_lights_func 007A                       __ptext1 06C9  
                     __ptext2 0628                       __ptext3 0613                       __ptext4 064A  
        end_of_initialization 07FC        ??_init_config_settings 007A                 __pidataCOMMON 061E  
         start_initialization 07B2                    init_fetch0 0637                   __pdataBANK0 0020  
                   ___latbits 0002                  _my_PORTAbits 0076                  _my_PORTBbits 0072  
                _my_PORTCbits 0028                  _my_PORTDbits 0024                  _my_PORTEbits 0020  
                   __my_PORTA 0019                     __my_PORTB 0015                     __my_PORTC 0011  
                   __my_PORTD 000D                     __my_PORTE 0009                     __my_TRISA 001B  
                   __my_TRISB 0017                     __my_TRISC 0013                     __my_TRISD 000F  
                   __my_TRISE 000B                  _my_TRISAbits 0078                  _my_TRISBbits 0074  
                _my_TRISCbits 0070                  _my_TRISDbits 0026                  _my_TRISEbits 0022  
                   __pstrings 0003                 _set_all_ports 0628   __end_of_walking_lights_func 07B2  
                 __stringbase 0008                ?_set_all_ports 007A            __end_of__stringtab 0009  
             ??_set_all_ports 007A                      init_ram0 063B                     stringcode 0003  
                    stringdir 0003                      stringtab 0003                _flip_flop_func 064A  
